Certificate:
    Data:
        Version: 3 (0x2)
        Serial Number: 1 (0x1)
    Signature Algorithm: sha256WithRSAEncryption
        Issuer: CN=devcert
        Validity
            Not Before: Jun 29 02:41:29 2020 GMT
            Not After : Oct  2 02:41:29 2022 GMT
        Subject: CN=localhost
        Subject Public Key Info:
            Public Key Algorithm: rsaEncryption
                Public-Key: (2048 bit)
                Modulus:
                    00:a1:bb:2b:84:f9:21:b1:49:a0:8d:e2:e5:bc:e7:
                    00:bd:56:b8:34:e9:b8:8b:43:4c:7d:d7:2f:05:32:
                    c9:36:14:10:a3:8d:1a:31:5b:57:4f:4b:e5:cd:51:
                    8d:73:d9:3d:d4:e2:61:e8:b1:59:14:36:39:54:15:
                    3c:c5:b5:b4:1d:c1:b0:4a:7b:a7:90:19:7a:f1:e5:
                    84:60:44:20:0b:90:dc:60:88:92:54:0d:d8:90:68:
                    9b:42:b5:b9:be:25:0c:b0:b3:80:c7:85:2e:66:70:
                    50:89:21:f8:50:2c:5e:43:0a:3e:3e:a5:1a:3c:ad:
                    36:a0:57:d2:96:08:ef:8d:93:95:e4:a7:aa:d8:ea:
                    3b:6b:f4:8d:04:1b:e3:f1:55:58:96:02:84:a6:3e:
                    e6:36:25:72:01:3d:c9:bb:39:e1:31:23:de:94:b1:
                    6b:f1:1b:fc:7e:d2:f0:2c:fc:4e:72:e8:4e:4c:05:
                    c4:91:c7:02:b5:f2:a6:d1:5b:af:70:35:2e:19:0e:
                    07:2e:0a:30:92:81:8b:8d:35:46:67:e4:10:79:b9:
                    18:fc:5e:cc:3b:dd:1f:cf:b1:21:c8:cf:91:d5:c7:
                    71:ed:ea:bf:b7:e0:a2:97:53:c2:90:ad:3f:55:42:
                    80:e5:5b:16:d4:a1:86:3f:f0:e1:85:09:d5:79:65:
                    4f:51
                Exponent: 65537 (0x10001)
        X509v3 extensions:
            X509v3 Basic Constraints: critical
                CA:FALSE
            X509v3 Subject Key Identifier: 
                C4:F4:D0:5B:41:17:56:21:BF:10:E8:35:6A:8B:96:EC:45:34:E7:EC
            X509v3 Authority Key Identifier: 
                keyid:BD:88:3F:53:EB:B2:50:1F:D3:D0:52:66:07:9F:22:7C:9F:61:B6:D9
                DirName:/CN=devcert
                serial:DD:55:DE:50:FD:30:9F:7A

            X509v3 Key Usage: critical
                Digital Signature, Key Encipherment
            X509v3 Extended Key Usage: 
                TLS Web Server Authentication
            X509v3 Subject Alternative Name: 
                DNS:localhost, DNS:*.localhost
    Signature Algorithm: sha256WithRSAEncryption
         54:0c:1e:bf:be:d1:b0:1e:ab:aa:2a:de:23:db:38:99:9b:92:
         ee:87:d9:e3:6b:38:de:fe:87:c8:23:e4:a3:7b:a6:c3:33:73:
         dd:05:2d:0d:55:52:38:5e:10:4b:31:10:d1:c1:cf:77:10:44:
         30:94:9b:27:b7:35:31:cf:47:35:e1:35:d3:81:44:58:ca:a9:
         5b:e6:8f:8a:3f:4d:02:9c:25:70:7f:f2:5b:9b:5b:54:01:24:
         7b:11:89:af:d8:a2:50:f1:51:c6:05:30:5b:24:ef:fd:c7:a4:
         43:29:5b:dd:f0:ad:63:e1:ac:ba:da:d7:2d:30:42:b7:00:ca:
         fb:43:5e:f5:65:f4:44:27:94:07:82:03:36:57:81:73:f4:f3:
         20:8b:da:42:c7:fe:e6:e1:a5:e5:ec:fb:49:b2:e0:36:d1:2c:
         0e:cc:df:7a:64:42:77:24:32:61:09:e8:64:6c:fa:aa:e9:cb:
         c1:b6:51:b2:11:28:34:be:49:13:aa:34:79:bb:e6:c0:22:04:
         22:d8:04:b3:42:b8:92:ae:98:37:13:07:20:2f:8c:81:75:01:
         52:26:9f:78:80:4c:8e:64:cf:e8:78:d8:88:88:aa:a8:0a:08:
         16:b4:9d:d0:f5:47:3a:91:ed:80:ec:e6:e0:83:2b:6b:53:73:
         42:bd:6d:93
-----BEGIN CERTIFICATE-----
MIIDXjCCAkagAwIBAgIBATANBgkqhkiG9w0BAQsFADASMRAwDgYDVQQDDAdkZXZj
ZXJ0MB4XDTIwMDYyOTAyNDEyOVoXDTIyMTAwMjAyNDEyOVowFDESMBAGA1UEAwwJ
bG9jYWxob3N0MIIBIjANBgkqhkiG9w0BAQEFAAOCAQ8AMIIBCgKCAQEAobsrhPkh
sUmgjeLlvOcAvVa4NOm4i0NMfdcvBTLJNhQQo40aMVtXT0vlzVGNc9k91OJh6LFZ
FDY5VBU8xbW0HcGwSnunkBl68eWEYEQgC5DcYIiSVA3YkGibQrW5viUMsLOAx4Uu
ZnBQiSH4UCxeQwo+PqUaPK02oFfSlgjvjZOV5Keq2Oo7a/SNBBvj8VVYlgKEpj7m
NiVyAT3JuznhMSPelLFr8Rv8ftLwLPxOcuhOTAXEkccCtfKm0VuvcDUuGQ4HLgow
koGLjTVGZ+QQebkY/F7MO90fz7EhyM+R1cdx7eq/t+Cil1PCkK0/VUKA5VsW1KGG
P/DhhQnVeWVPUQIDAQABo4G8MIG5MAwGA1UdEwEB/wQCMAAwHQYDVR0OBBYEFMT0
0FtBF1YhvxDoNWqLluxFNOfsMEIGA1UdIwQ7MDmAFL2IP1PrslAf09BSZgefInyf
YbbZoRakFDASMRAwDgYDVQQDDAdkZXZjZXJ0ggkA3VXeUP0wn3owDgYDVR0PAQH/
BAQDAgWgMBMGA1UdJQQMMAoGCCsGAQUFBwMBMCEGA1UdEQQaMBiCCWxvY2FsaG9z
dIILKi5sb2NhbGhvc3QwDQYJKoZIhvcNAQELBQADggEBAFQMHr++0bAeq6oq3iPb
OJmbku6H2eNrON7+h8gj5KN7psMzc90FLQ1VUjheEEsxENHBz3cQRDCUmye3NTHP
RzXhNdOBRFjKqVvmj4o/TQKcJXB/8lubW1QBJHsRia/YolDxUcYFMFsk7/3HpEMp
W93wrWPhrLra1y0wQrcAyvtDXvVl9EQnlAeCAzZXgXP08yCL2kLH/ubhpeXs+0my
4DbRLA7M33pkQnckMmEJ6GRs+qrpy8G2UbIRKDS+SROqNHm75sAiBCLYBLNCuJKu
mDcTByAvjIF1AVImn3iATI5kz+h42IiIqqgKCBa0ndD1RzqR7YDs5uCDK2tTc0K9
bZM=
-----END CERTIFICATE-----
